target datalayout = "e-m:e-p270:32:32-p271:32:32-p272:64:64-i64:64-i128:128-f80:128-n8:16:32:64-S128"
target triple = "x86_64-pc-linux-gnu"

%"class.std::__cxx11::basic_string" = type { %"struct.std::__cxx11::basic_string<char>::_Alloc_hider", i64, %union.anon }
%"struct.std::__cxx11::basic_string<char>::_Alloc_hider" = type { ptr }
%union.anon = type { i64, [8 x i8] }
%"class.llvm::SmallVectorBase" = type { ptr, i32, i32 }
%"struct.llvm::CGPassBuilderOption" = type <{ %"class.std::optional.153", %"class.std::optional.153", i8, i8, i8, i8, i8, i8, i8, i8, i8, i8, i8, i8, i8, i8, i8, i8, i8, i8, i8, i8, i8, i8, [2 x i8], i32, %"class.llvm::StringRef", %"class.std::optional.159", %"class.std::__cxx11::basic_string", %"class.std::__cxx11::basic_string", %"class.std::optional.153", %"class.std::optional.153", %"class.std::optional.153", %"class.std::optional.153", %"class.std::optional.153", [6 x i8] }>
%"class.llvm::StringRef" = type { ptr, i64 }
%"class.std::optional.159" = type { %"struct.std::_Optional_base.160" }
%"struct.std::_Optional_base.160" = type { %"struct.std::_Optional_payload.162" }
%"struct.std::_Optional_payload.162" = type { %"struct.std::_Optional_payload_base.base.164", [3 x i8] }
%"struct.std::_Optional_payload_base.base.164" = type <{ %"union.std::_Optional_payload_base<llvm::GlobalISelAbortMode>::_Storage", i8 }>
%"union.std::_Optional_payload_base<llvm::GlobalISelAbortMode>::_Storage" = type { i32 }
%"class.std::optional.153" = type { %"struct.std::_Optional_base.154" }
%"struct.std::_Optional_base.154" = type { %"struct.std::_Optional_payload.156" }
%"struct.std::_Optional_payload.156" = type { %"struct.std::_Optional_payload_base.157" }
%"struct.std::_Optional_payload_base.157" = type { %"union.std::_Optional_payload_base<bool>::_Storage", i8 }
%"union.std::_Optional_payload_base<bool>::_Storage" = type { %"struct.std::_Optional_payload_base<bool>::_Empty_byte" }
%"struct.std::_Optional_payload_base<bool>::_Empty_byte" = type { i8 }
%"class.llvm::SmallVector.167" = type { %"class.llvm::SmallVectorImpl.168", %"struct.llvm::SmallVectorStorage.171" }
%"class.llvm::SmallVectorImpl.168" = type { %"class.llvm::SmallVectorTemplateBase.169" }
%"class.llvm::SmallVectorTemplateBase.169" = type { %"class.llvm::SmallVectorTemplateCommon.170" }
%"class.llvm::SmallVectorTemplateCommon.170" = type { %"class.llvm::SmallVectorBase" }
%"struct.llvm::SmallVectorStorage.171" = type { [128 x i8] }
%"class.llvm::SmallVector.172" = type { %"class.llvm::SmallVectorImpl.173", %"struct.llvm::SmallVectorStorage.176" }
%"class.llvm::SmallVectorImpl.173" = type { %"class.llvm::SmallVectorTemplateBase.174" }
%"class.llvm::SmallVectorTemplateBase.174" = type { %"class.llvm::SmallVectorTemplateCommon.175" }
%"class.llvm::SmallVectorTemplateCommon.175" = type { %"class.llvm::SmallVectorBase" }
%"struct.llvm::SmallVectorStorage.176" = type { [128 x i8] }
%"class.llvm::CodeGenPassBuilder" = type <{ ptr, %"struct.llvm::CGPassBuilderOption", ptr, %"class.llvm::SmallVector.167", %"class.llvm::SmallVector.172", i8, i8, [6 x i8] }>
%class.anon.518 = type { ptr, ptr, i8, i32 }
%"struct.llvm::TargetPassConfig::StartStopInfo" = type { i8, i8, i32, i32, %"class.llvm::StringRef", %"class.llvm::StringRef" }

; Function Attrs: mustprogress nounwind uwtable
define linkonce_odr hidden noundef ptr @_ZNK4llvm9StringRef4dataEv(ptr noundef nonnull align 8 dereferenceable(16) %0) #0 comdat align 2 {
  %2 = alloca ptr, align 8
  store ptr %0, ptr %2, align 8
  %3 = load ptr, ptr %2, align 8
  %4 = getelementptr inbounds nuw %"class.llvm::StringRef", ptr %3, i32 0, i32 0
  %5 = load ptr, ptr %4, align 8
  ret ptr %5
}

; Function Attrs: mustprogress nounwind uwtable
define linkonce_odr hidden noundef zeroext i1 @_ZNK4llvm9StringRef5emptyEv(ptr noundef nonnull align 8 dereferenceable(16) %0) #0 comdat align 2 {
  %2 = alloca ptr, align 8
  store ptr %0, ptr %2, align 8
  %3 = load ptr, ptr %2, align 8
  %4 = getelementptr inbounds nuw %"class.llvm::StringRef", ptr %3, i32 0, i32 1
  %5 = load i64, ptr %4, align 8
  %6 = icmp eq i64 %5, 0
  ret i1 %6
}

; Function Attrs: mustprogress nounwind uwtable
define linkonce_odr hidden noundef i64 @_ZNK4llvm9StringRef4sizeEv(ptr noundef nonnull align 8 dereferenceable(16) %0) #0 comdat align 2 {
  %2 = alloca ptr, align 8
  store ptr %0, ptr %2, align 8
  %3 = load ptr, ptr %2, align 8
  %4 = getelementptr inbounds nuw %"class.llvm::StringRef", ptr %3, i32 0, i32 1
  %5 = load i64, ptr %4, align 8
  ret i64 %5
}

; Function Attrs: mustprogress nounwind uwtable
define linkonce_odr hidden noundef zeroext i1 @_ZN4llvmeqENS_9StringRefES0_(ptr %0, i64 %1, ptr %2, i64 %3) #0 comdat {
  %5 = alloca i1, align 1
  %6 = alloca %"class.llvm::StringRef", align 8
  %7 = alloca %"class.llvm::StringRef", align 8
  %8 = getelementptr inbounds nuw { ptr, i64 }, ptr %6, i32 0, i32 0
  store ptr %0, ptr %8, align 8
  %9 = getelementptr inbounds nuw { ptr, i64 }, ptr %6, i32 0, i32 1
  store i64 %1, ptr %9, align 8
  %10 = getelementptr inbounds nuw { ptr, i64 }, ptr %7, i32 0, i32 0
  store ptr %2, ptr %10, align 8
  %11 = getelementptr inbounds nuw { ptr, i64 }, ptr %7, i32 0, i32 1
  store i64 %3, ptr %11, align 8
  %12 = call noundef i64 @_ZNK4llvm9StringRef4sizeEv(ptr noundef nonnull align 8 dereferenceable(16) %6)
  %13 = call noundef i64 @_ZNK4llvm9StringRef4sizeEv(ptr noundef nonnull align 8 dereferenceable(16) %7)
  %14 = icmp ne i64 %12, %13
  br i1 %14, label %15, label %16

15:                                               ; preds = %4
  store i1 false, ptr %5, align 1
  br label %25

16:                                               ; preds = %4
  %17 = call noundef zeroext i1 @_ZNK4llvm9StringRef5emptyEv(ptr noundef nonnull align 8 dereferenceable(16) %6)
  br i1 %17, label %18, label %19

18:                                               ; preds = %16
  store i1 true, ptr %5, align 1
  br label %25

19:                                               ; preds = %16
  %20 = call noundef ptr @_ZNK4llvm9StringRef4dataEv(ptr noundef nonnull align 8 dereferenceable(16) %6)
  %21 = call noundef ptr @_ZNK4llvm9StringRef4dataEv(ptr noundef nonnull align 8 dereferenceable(16) %7)
  %22 = call noundef i64 @_ZNK4llvm9StringRef4sizeEv(ptr noundef nonnull align 8 dereferenceable(16) %6)
  %23 = call i32 @memcmp(ptr noundef %20, ptr noundef %21, i64 noundef %22) #13
  %24 = icmp eq i32 %23, 0
  store i1 %24, ptr %5, align 1
  br label %25

25:                                               ; preds = %19, %18, %15
  %26 = load i1, ptr %5, align 1
  ret i1 %26
}

; Function Attrs: mustprogress nounwind uwtable
define internal noundef zeroext i1 @_ZZNK4llvm18CodeGenPassBuilderIN12_GLOBAL__N_121X86CodeGenPassBuilderENS_16X86TargetMachineEE18setStartStopPassesERKNS_16TargetPassConfig13StartStopInfoEENUlNS_9StringRefEE_clES9_(ptr noundef nonnull align 8 dereferenceable(24) %0, ptr %1, i64 %2) #0 align 2 {
  %4 = alloca i1, align 1
  %5 = alloca %"class.llvm::StringRef", align 8
  %6 = alloca ptr, align 8
  %7 = alloca %"class.llvm::StringRef", align 8
  %8 = alloca %"class.llvm::StringRef", align 8
  %9 = alloca %"class.llvm::StringRef", align 8
  %10 = alloca %"class.llvm::StringRef", align 8
  %11 = getelementptr inbounds nuw { ptr, i64 }, ptr %5, i32 0, i32 0
  store ptr %1, ptr %11, align 8
  %12 = getelementptr inbounds nuw { ptr, i64 }, ptr %5, i32 0, i32 1
  store i64 %2, ptr %12, align 8
  store ptr %0, ptr %6, align 8
  %13 = load ptr, ptr %6, align 8
  %14 = getelementptr inbounds nuw %class.anon.518, ptr %13, i32 0, i32 0
  %15 = load ptr, ptr %14, align 8
  %16 = getelementptr inbounds nuw %class.anon.518, ptr %13, i32 0, i32 3
  %17 = load i32, ptr %16, align 4
  %18 = getelementptr inbounds nuw %class.anon.518, ptr %13, i32 0, i32 1
  %19 = load ptr, ptr %18, align 8
  %20 = getelementptr inbounds nuw %"struct.llvm::TargetPassConfig::StartStopInfo", ptr %19, i32 0, i32 2
  %21 = load i32, ptr %20, align 4
  %22 = icmp eq i32 %17, %21
  br i1 %22, label %23, label %34

23:                                               ; preds = %3
  %24 = getelementptr inbounds nuw %class.anon.518, ptr %13, i32 0, i32 2
  %25 = load i8, ptr %24, align 8
  %26 = trunc i8 %25 to i1
  br i1 %26, label %27, label %30

27:                                               ; preds = %23
  %28 = getelementptr inbounds nuw %class.anon.518, ptr %13, i32 0, i32 2
  store i8 0, ptr %28, align 8
  %29 = getelementptr inbounds nuw %"class.llvm::CodeGenPassBuilder", ptr %15, i32 0, i32 5
  store i8 1, ptr %29, align 8
  br label %30

30:                                               ; preds = %27, %23
  %31 = getelementptr inbounds nuw %"class.llvm::CodeGenPassBuilder", ptr %15, i32 0, i32 5
  %32 = load i8, ptr %31, align 8
  %33 = trunc i8 %32 to i1
  store i1 %33, ptr %4, align 1
  br label %80

34:                                               ; preds = %3
  %35 = getelementptr inbounds nuw %"class.llvm::CodeGenPassBuilder", ptr %15, i32 0, i32 2
  %36 = load ptr, ptr %35, align 8
  call void @llvm.memcpy.p0.p0.i64(ptr align 8 %8, ptr align 8 %5, i64 16, i1 false)
  %37 = getelementptr inbounds nuw { ptr, i64 }, ptr %8, i32 0, i32 0
  %38 = load ptr, ptr %37, align 8
  %39 = getelementptr inbounds nuw { ptr, i64 }, ptr %8, i32 0, i32 1
  %40 = load i64, ptr %39, align 8
  %41 = call { ptr, i64 } @_ZN4llvm28PassInstrumentationCallbacks23getPassNameForClassNameENS_9StringRefE(ptr noundef nonnull align 8 dereferenceable(1464) %36, ptr %38, i64 %40)
  %42 = getelementptr inbounds nuw { ptr, i64 }, ptr %7, i32 0, i32 0
  %43 = extractvalue { ptr, i64 } %41, 0
  store ptr %43, ptr %42, align 8
  %44 = getelementptr inbounds nuw { ptr, i64 }, ptr %7, i32 0, i32 1
  %45 = extractvalue { ptr, i64 } %41, 1
  store i64 %45, ptr %44, align 8
  %46 = getelementptr inbounds nuw %class.anon.518, ptr %13, i32 0, i32 1
  %47 = load ptr, ptr %46, align 8
  %48 = getelementptr inbounds nuw %"struct.llvm::TargetPassConfig::StartStopInfo", ptr %47, i32 0, i32 4
  call void @llvm.memcpy.p0.p0.i64(ptr align 8 %9, ptr align 8 %48, i64 16, i1 false)
  call void @llvm.memcpy.p0.p0.i64(ptr align 8 %10, ptr align 8 %7, i64 16, i1 false)
  %49 = getelementptr inbounds nuw { ptr, i64 }, ptr %9, i32 0, i32 0
  %50 = load ptr, ptr %49, align 8
  %51 = getelementptr inbounds nuw { ptr, i64 }, ptr %9, i32 0, i32 1
  %52 = load i64, ptr %51, align 8
  %53 = getelementptr inbounds nuw { ptr, i64 }, ptr %10, i32 0, i32 0
  %54 = load ptr, ptr %53, align 8
  %55 = getelementptr inbounds nuw { ptr, i64 }, ptr %10, i32 0, i32 1
  %56 = load i64, ptr %55, align 8
  %57 = call noundef zeroext i1 @_ZN4llvmeqENS_9StringRefES0_(ptr %50, i64 %52, ptr %54, i64 %56)
  br i1 %57, label %58, label %76

58:                                               ; preds = %34
  %59 = getelementptr inbounds nuw %class.anon.518, ptr %13, i32 0, i32 3
  %60 = load i32, ptr %59, align 4
  %61 = add i32 %60, 1
  store i32 %61, ptr %59, align 4
  %62 = getelementptr inbounds nuw %class.anon.518, ptr %13, i32 0, i32 1
  %63 = load ptr, ptr %62, align 8
  %64 = getelementptr inbounds nuw %"struct.llvm::TargetPassConfig::StartStopInfo", ptr %63, i32 0, i32 2
  %65 = load i32, ptr %64, align 4
  %66 = icmp eq i32 %61, %65
  br i1 %66, label %67, label %76

67:                                               ; preds = %58
  %68 = getelementptr inbounds nuw %class.anon.518, ptr %13, i32 0, i32 1
  %69 = load ptr, ptr %68, align 8
  %70 = getelementptr inbounds nuw %"struct.llvm::TargetPassConfig::StartStopInfo", ptr %69, i32 0, i32 0
  %71 = load i8, ptr %70, align 8
  %72 = trunc i8 %71 to i1
  %73 = xor i1 %72, true
  %74 = getelementptr inbounds nuw %"class.llvm::CodeGenPassBuilder", ptr %15, i32 0, i32 5
  %75 = zext i1 %73 to i8
  store i8 %75, ptr %74, align 8
  br label %76

76:                                               ; preds = %67, %58, %34
  %77 = getelementptr inbounds nuw %"class.llvm::CodeGenPassBuilder", ptr %15, i32 0, i32 5
  %78 = load i8, ptr %77, align 8
  %79 = trunc i8 %78 to i1
  store i1 %79, ptr %4, align 1
  br label %80

80:                                               ; preds = %76, %30
  %81 = load i1, ptr %4, align 1
  ret i1 %81
}

; Function Attrs: mustprogress nounwind uwtable
define internal noundef zeroext i1 @_ZN4llvm6detail18UniqueFunctionBaseIbJNS_9StringRefEEE8CallImplIZNKS_18CodeGenPassBuilderIN12_GLOBAL__N_121X86CodeGenPassBuilderENS_16X86TargetMachineEE18setStartStopPassesERKNS_16TargetPassConfig13StartStopInfoEEUlS2_E_EEbPvS2_(ptr noundef %0, ptr %1, i64 %2) #0 align 2 {
  %4 = alloca %"class.llvm::StringRef", align 8
  %5 = alloca ptr, align 8
  %6 = alloca ptr, align 8
  %7 = alloca %"class.llvm::StringRef", align 8
  %8 = getelementptr inbounds nuw { ptr, i64 }, ptr %4, i32 0, i32 0
  store ptr %1, ptr %8, align 8
  %9 = getelementptr inbounds nuw { ptr, i64 }, ptr %4, i32 0, i32 1
  store i64 %2, ptr %9, align 8
  store ptr %0, ptr %5, align 8
  %10 = load ptr, ptr %5, align 8
  store ptr %10, ptr %6, align 8
  %11 = load ptr, ptr %6, align 8
  call void @llvm.memcpy.p0.p0.i64(ptr align 8 %7, ptr align 8 %4, i64 16, i1 false)
  %12 = getelementptr inbounds nuw { ptr, i64 }, ptr %7, i32 0, i32 0
  %13 = load ptr, ptr %12, align 8
  %14 = getelementptr inbounds nuw { ptr, i64 }, ptr %7, i32 0, i32 1
  %15 = load i64, ptr %14, align 8
  %16 = call noundef zeroext i1 @_ZZNK4llvm18CodeGenPassBuilderIN12_GLOBAL__N_121X86CodeGenPassBuilderENS_16X86TargetMachineEE18setStartStopPassesERKNS_16TargetPassConfig13StartStopInfoEENUlNS_9StringRefEE_clES9_(ptr noundef nonnull align 8 dereferenceable(24) %11, ptr %13, i64 %15)
  ret i1 %16
}