; Function Attrs: mustprogress nounwind uwtable
define internal noundef zeroext i1 @_ZN4llvm6detail18UniqueFunctionBaseIbJNS_9StringRefEEE8CallImplIZNKS_18CodeGenPassBuilderIN12_GLOBAL__N_121X86CodeGenPassBuilderENS_16X86TargetMachineEE18setStartStopPassesERKNS_16TargetPassConfig13StartStopInfoEEUlS2_E_EEbPvS2_(ptr noundef captures(none) %0, ptr %1, i64 %2) #0 align 2 {
  %4 = load ptr, ptr %0, align 8
  %5 = getelementptr inbounds nuw i8, ptr %0, i64 20
  %6 = load i32, ptr %5, align 4
  %7 = getelementptr inbounds nuw i8, ptr %0, i64 8
  %8 = load ptr, ptr %7, align 8
  %9 = getelementptr inbounds nuw i8, ptr %8, i64 4
  %10 = load i32, ptr %9, align 4
  %11 = icmp eq i32 %6, %10
  br i1 %11, label %12, label %18

12:                                               ; preds = %3
  %13 = getelementptr inbounds nuw i8, ptr %0, i64 16
  %14 = load i8, ptr %13, align 8
  %15 = trunc i8 %14 to i1
  br i1 %15, label %16, label %_ZZNK4llvm18CodeGenPassBuilderIN12_GLOBAL__N_121X86CodeGenPassBuilderENS_16X86TargetMachineEE18setStartStopPassesERKNS_16TargetPassConfig13StartStopInfoEENUlNS_9StringRefEE_clES9_.exit

16:                                               ; preds = %12
  store i8 0, ptr %13, align 8
  %17 = getelementptr inbounds nuw i8, ptr %4, i64 440
  store i8 1, ptr %17, align 8
  br label %_ZZNK4llvm18CodeGenPassBuilderIN12_GLOBAL__N_121X86CodeGenPassBuilderENS_16X86TargetMachineEE18setStartStopPassesERKNS_16TargetPassConfig13StartStopInfoEENUlNS_9StringRefEE_clES9_.exit

18:                                               ; preds = %3
  %19 = getelementptr inbounds nuw i8, ptr %4, i64 144
  %20 = load ptr, ptr %19, align 8
  %21 = tail call { ptr, i64 } @_ZN4llvm28PassInstrumentationCallbacks23getPassNameForClassNameENS_9StringRefE(ptr noundef nonnull align 8 dereferenceable(1464) %20, ptr %1, i64 %2) #18
  %22 = extractvalue { ptr, i64 } %21, 0
  %23 = extractvalue { ptr, i64 } %21, 1
  %24 = load ptr, ptr %7, align 8
  %25 = getelementptr inbounds nuw i8, ptr %24, i64 16
  %.sroa.01.0.copyload.i = load ptr, ptr %25, align 8
  %.sroa.22.0..sroa_idx.i = getelementptr inbounds nuw i8, ptr %24, i64 24
  %.sroa.22.0.copyload.i = load i64, ptr %.sroa.22.0..sroa_idx.i, align 8
  %.not.i.i = icmp eq i64 %.sroa.22.0.copyload.i, %23
  br i1 %.not.i.i, label %26, label %_ZZNK4llvm18CodeGenPassBuilderIN12_GLOBAL__N_121X86CodeGenPassBuilderENS_16X86TargetMachineEE18setStartStopPassesERKNS_16TargetPassConfig13StartStopInfoEENUlNS_9StringRefEE_clES9_.exit

26:                                               ; preds = %18
  %27 = icmp eq i64 %23, 0
  br i1 %27, label %_ZN4llvmeqENS_9StringRefES0_.exit.thread.i, label %_ZN4llvmeqENS_9StringRefES0_.exit.i

_ZN4llvmeqENS_9StringRefES0_.exit.i:              ; preds = %26
  %bcmp.i.i = tail call i32 @bcmp(ptr %.sroa.01.0.copyload.i, ptr %22, i64 %23)
  %28 = icmp eq i32 %bcmp.i.i, 0
  br i1 %28, label %_ZN4llvmeqENS_9StringRefES0_.exit.thread.i, label %_ZZNK4llvm18CodeGenPassBuilderIN12_GLOBAL__N_121X86CodeGenPassBuilderENS_16X86TargetMachineEE18setStartStopPassesERKNS_16TargetPassConfig13StartStopInfoEENUlNS_9StringRefEE_clES9_.exit

_ZN4llvmeqENS_9StringRefES0_.exit.thread.i:       ; preds = %_ZN4llvmeqENS_9StringRefES0_.exit.i, %26
  %29 = load i32, ptr %5, align 4
  %30 = add i32 %29, 1
  store i32 %30, ptr %5, align 4
  %31 = getelementptr inbounds nuw i8, ptr %24, i64 4
  %32 = load i32, ptr %31, align 4
  %33 = icmp eq i32 %30, %32
  br i1 %33, label %34, label %_ZZNK4llvm18CodeGenPassBuilderIN12_GLOBAL__N_121X86CodeGenPassBuilderENS_16X86TargetMachineEE18setStartStopPassesERKNS_16TargetPassConfig13StartStopInfoEENUlNS_9StringRefEE_clES9_.exit

34:                                               ; preds = %_ZN4llvmeqENS_9StringRefES0_.exit.thread.i
  %35 = load i8, ptr %24, align 8
  %36 = getelementptr inbounds nuw i8, ptr %4, i64 440
  %37 = and i8 %35, 1
  %38 = xor i8 %37, 1
  store i8 %38, ptr %36, align 8
  br label %_ZZNK4llvm18CodeGenPassBuilderIN12_GLOBAL__N_121X86CodeGenPassBuilderENS_16X86TargetMachineEE18setStartStopPassesERKNS_16TargetPassConfig13StartStopInfoEENUlNS_9StringRefEE_clES9_.exit

_ZZNK4llvm18CodeGenPassBuilderIN12_GLOBAL__N_121X86CodeGenPassBuilderENS_16X86TargetMachineEE18setStartStopPassesERKNS_16TargetPassConfig13StartStopInfoEENUlNS_9StringRefEE_clES9_.exit: ; preds = %12, %16, %18, %_ZN4llvmeqENS_9StringRefES0_.exit.i, %_ZN4llvmeqENS_9StringRefES0_.exit.thread.i, %34
  %.0.in.in.i = getelementptr inbounds nuw i8, ptr %4, i64 440
  %.0.in.i = load i8, ptr %.0.in.in.i, align 8
  %.0.i = trunc i8 %.0.in.i to i1
  ret i1 %.0.i
}